; Function Attrs: null_pointer_is_valid sspstrong uwtable
define internal zeroext i1 @dissect_ixiatrailer_heur(ptr noundef %0, ptr noundef %1, ptr noundef %2, ptr readnone captures(none) %3) #0 {
  %5 = alloca %struct.vec_t, align 8
  call void @llvm.lifetime.start.p0(i64 16, ptr nonnull %5) #4
  %6 = tail call i32 @tvb_reported_length(ptr noundef %0)
  %7 = tail call i32 @tvb_captured_length(ptr noundef %0)
  %.not78.i = icmp ne i32 %6, %7
  %8 = icmp ult i32 %6, 9
  %or.cond82.i = or i1 %8, %.not78.i
  br i1 %or.cond82.i, label %dissect_ixiatrailer.exit, label %9

9:                                                ; preds = %4
  %10 = icmp eq i32 %6, 23
  %spec.store.select.i = select i1 %10, i32 19, i32 %6
  %11 = add i32 %spec.store.select.i, -4
  %12 = tail call zeroext i16 @tvb_get_ntohs(ptr noundef %0, i32 noundef %11)
  %13 = icmp ne i16 %12, -20718
  %14 = icmp ugt i32 %spec.store.select.i, 12
  %or.cond.i = and i1 %14, %13
  br i1 %or.cond.i, label %15, label %19

15:                                               ; preds = %9
  %16 = add i32 %spec.store.select.i, -8
  %17 = tail call zeroext i16 @tvb_get_ntohs(ptr noundef %0, i32 noundef %16)
  %18 = icmp eq i16 %17, -20718
  br label %19

19:                                               ; preds = %15, %9
  %.071.i = phi i1 [ %18, %15 ], [ false, %9 ]
  %.not83.i = xor i1 %13, true
  %brmerge.i = select i1 %.not83.i, i1 true, i1 %.071.i
  %spec.store.select.mux.i = select i1 %13, i32 %11, i32 %spec.store.select.i
  br i1 %brmerge.i, label %20, label %dissect_ixiatrailer.exit

20:                                               ; preds = %19
  %21 = add i32 %spec.store.select.mux.i, -5
  %22 = tail call zeroext i8 @tvb_get_uint8(ptr noundef %0, i32 noundef %21)
  %23 = zext i8 %22 to i32
  %.not.i = icmp eq i32 %21, %23
  br i1 %.not.i, label %24, label %dissect_ixiatrailer.exit

24:                                               ; preds = %20
  %25 = add nsw i32 %spec.store.select.mux.i, -2
  %26 = tail call zeroext i16 @tvb_get_ntohs(ptr noundef %0, i32 noundef %25)
  %27 = getelementptr inbounds nuw i8, ptr %5, i64 8
  store i32 %25, ptr %27, align 8
  %28 = tail call ptr @tvb_get_ptr(ptr noundef %0, i32 noundef 0, i32 noundef %25)
  store ptr %28, ptr %5, align 8
  %29 = call i32 @in_cksum(ptr noundef nonnull %5, i32 noundef 1)
  %trunc.i = trunc i32 %29 to i16
  %30 = call i16 @llvm.bswap.i16(i16 %trunc.i)
  %31 = zext i16 %26 to i32
  %.not79.i = icmp eq i16 %30, %26
  br i1 %.not79.i, label %32, label %dissect_ixiatrailer.exit

32:                                               ; preds = %24
  %33 = load i32, ptr @proto_ixiatrailer, align 4
  %34 = call ptr @proto_tree_add_item(ptr noundef %2, i32 noundef %33, ptr noundef %0, i32 noundef 0, i32 noundef %spec.store.select.mux.i, i32 noundef 0)
  %35 = load i8, ptr @ixiatrailer_summary_in_tree, align 1, !range !6, !noundef !7
  %36 = trunc nuw i8 %35 to i1
  br i1 %36, label %37, label %38

37:                                               ; preds = %32
  call void (ptr, ptr, ...) @proto_item_append_text(ptr noundef %34, ptr noundef nonnull @.str.16, i32 noundef %21, i32 noundef %31)
  br label %38

38:                                               ; preds = %37, %32
  %39 = load i32, ptr @ett_ixiatrailer, align 4
  %40 = call ptr @proto_item_add_subtree(ptr noundef %34, i32 noundef %39)
  %41 = add nsw i32 %spec.store.select.mux.i, -7
  %.not4.i = icmp eq i32 %41, 0
  br i1 %.not4.i, label %dissect_ixiatrailer.exit, label %.lr.ph.i

.lr.ph.i:                                         ; preds = %38, %64
  %.0693.i = phi ptr [ %.1.i, %64 ], [ %34, %38 ]
  %.0702.i = phi i32 [ %65, %64 ], [ 0, %38 ]
  %42 = add nuw i32 %.0702.i, 1
  %43 = call zeroext i8 @tvb_get_uint8(ptr noundef %0, i32 noundef %.0702.i)
  %44 = add i32 %.0702.i, 2
  %45 = call zeroext i8 @tvb_get_uint8(ptr noundef %0, i32 noundef %42)
  %46 = zext i8 %45 to i32
  %47 = zext i8 %43 to i32
  switch i8 %43, label %61 [
    i8 1, label %48
    i8 3, label %54
    i8 4, label %54
    i8 5, label %54
    i8 6, label %54
    i8 7, label %54
  ]

48:                                               ; preds = %.lr.ph.i
  %.not81.i = icmp eq i8 %45, 2
  br i1 %.not81.i, label %51, label %49

49:                                               ; preds = %48
  %50 = call ptr (ptr, ptr, ptr, ptr, ...) @expert_add_info_format(ptr noundef %1, ptr noundef %.0693.i, ptr noundef nonnull @ei_ixiatrailer_field_length_invalid, ptr noundef nonnull @.str.17, i32 noundef %46)
  br label %64

51:                                               ; preds = %48
  %52 = load i32, ptr @hf_ixiatrailer_packetlen, align 4
  %53 = call ptr @proto_tree_add_item(ptr noundef %40, i32 noundef %52, ptr noundef %0, i32 noundef %44, i32 noundef 2, i32 noundef 0)
  call void (ptr, ptr, ...) @proto_item_append_text(ptr noundef %53, ptr noundef nonnull @.str.18)
  br label %64

54:                                               ; preds = %.lr.ph.i, %.lr.ph.i, %.lr.ph.i, %.lr.ph.i, %.lr.ph.i
  %.not80.i = icmp eq i8 %45, 8
  br i1 %.not80.i, label %57, label %55

55:                                               ; preds = %54
  %56 = call ptr (ptr, ptr, ptr, ptr, ...) @expert_add_info_format(ptr noundef %1, ptr noundef %.0693.i, ptr noundef nonnull @ei_ixiatrailer_field_length_invalid, ptr noundef nonnull @.str.17, i32 noundef %46)
  br label %64

57:                                               ; preds = %54
  %58 = load i32, ptr @hf_ixiatrailer_timestamp, align 4
  %59 = call ptr @proto_tree_add_item(ptr noundef %40, i32 noundef %58, ptr noundef %0, i32 noundef %44, i32 noundef 8, i32 noundef 0)
  %60 = call ptr @val_to_str_const(i32 noundef %47, ptr noundef nonnull @ixiatrailer_ftype_timestamp, ptr noundef nonnull @.str.20)
  call void (ptr, ptr, ...) @proto_item_append_text(ptr noundef %59, ptr noundef nonnull @.str.19, ptr noundef %60)
  br label %64

61:                                               ; preds = %.lr.ph.i
  %62 = load i32, ptr @hf_ixiatrailer_generic, align 4
  %63 = call ptr @proto_tree_add_item(ptr noundef %40, i32 noundef %62, ptr noundef %0, i32 noundef %44, i32 noundef %46, i32 noundef 0)
  call void (ptr, ptr, ...) @proto_item_append_text(ptr noundef %63, ptr noundef nonnull @.str.21, i32 noundef %47, i32 noundef %46)
  br label %64

64:                                               ; preds = %61, %57, %55, %51, %49
  %.1.i = phi ptr [ %63, %61 ], [ %.0693.i, %55 ], [ %59, %57 ], [ %.0693.i, %49 ], [ %53, %51 ]
  %65 = add i32 %44, %46
  %66 = icmp ult i32 %65, %41
  br i1 %66, label %.lr.ph.i, label %dissect_ixiatrailer.exit.loopexit, !llvm.loop !8

dissect_ixiatrailer.exit.loopexit:                ; preds = %64
  %67 = icmp sgt i32 %spec.store.select.mux.i, 0
  br label %dissect_ixiatrailer.exit

dissect_ixiatrailer.exit:                         ; preds = %dissect_ixiatrailer.exit.loopexit, %4, %19, %20, %24, %38
  %.0.i = phi i1 [ false, %4 ], [ false, %20 ], [ false, %24 ], [ false, %19 ], [ true, %38 ], [ %67, %dissect_ixiatrailer.exit.loopexit ]
  call void @llvm.lifetime.end.p0(i64 16, ptr nonnull %5) #4
  ret i1 %.0.i
}